target datalayout = "e-m:e-p270:32:32-p271:32:32-p272:64:64-i64:64-i128:128-f80:128-n8:16:32:64-S128"
target triple = "x86_64-pc-linux-gnu"

%struct.Gia_ManTranStochParam = type { ptr, i32, i32, i32, i32, i32, i32, i32, i32, i32, i32, i32, ptr, i32, i32, i32, ptr, i32, ptr }
%struct.Gia_Man_t_ = type { ptr, ptr, i32, i32, i32, i32, ptr, ptr, i32, i32, i32, ptr, ptr, %struct.Vec_Int_t_, %struct.Vec_Int_t_, i32, i32, i32, %struct.Vec_Int_t_, ptr, ptr, ptr, i32, i32, i32, i32, ptr, ptr, ptr, ptr, ptr, i32, i32, ptr, i32, ptr, ptr, ptr, ptr, ptr, ptr, ptr, ptr, ptr, ptr, ptr, ptr, ptr, ptr, ptr, ptr, ptr, ptr, %struct.Vec_Int_t_, %struct.Vec_Int_t_, ptr, ptr, ptr, ptr, ptr, ptr, ptr, ptr, ptr, ptr, ptr, ptr, ptr, ptr, ptr, ptr, ptr, ptr, ptr, ptr, ptr, i32, float, float, ptr, ptr, i32, ptr, ptr, ptr, ptr, ptr, ptr, ptr, ptr, ptr, ptr, ptr, ptr, ptr, ptr, ptr, i64, i64, ptr, ptr, i32, i32, i32, i32, i32, i32, i32, i32, i32, i32, i32, i32, ptr, ptr, ptr, ptr, ptr, ptr, ptr, ptr, i32, i32, i32, ptr, i32, i32, ptr, ptr, ptr, ptr, ptr, ptr, i32, i32, ptr, %struct.Vec_Int_t_, %struct.Vec_Int_t_, %struct.Vec_Int_t_, ptr, ptr, ptr, i32, i32, i32, i32, ptr, ptr, ptr, ptr, ptr }
%struct.Vec_Int_t_ = type { i32, i32, ptr }

@.str.2 = private unnamed_addr constant [40 x i8] c"*  res %2d              : #nodes = %5d\0A\00", align 1

; Function Attrs: inlinehint nounwind uwtable
define internal i32 @Vec_IntSize(ptr noundef %0) #4 {
  %2 = alloca ptr, align 8
  store ptr %0, ptr %2, align 8, !tbaa !108
  %3 = load ptr, ptr %2, align 8, !tbaa !108
  %4 = getelementptr inbounds nuw %struct.Vec_Int_t_, ptr %3, i32 0, i32 1
  %5 = load i32, ptr %4, align 4, !tbaa !109
  ret i32 %5
}

; Function Attrs: inlinehint nounwind uwtable
define internal i32 @Gia_ManAndNum(ptr noundef %0) #4 {
  %2 = alloca ptr, align 8
  store ptr %0, ptr %2, align 8, !tbaa !3
  %3 = load ptr, ptr %2, align 8, !tbaa !3
  %4 = getelementptr inbounds nuw %struct.Gia_Man_t_, ptr %3, i32 0, i32 4
  %5 = load i32, ptr %4, align 8, !tbaa !56
  %6 = load ptr, ptr %2, align 8, !tbaa !3
  %7 = getelementptr inbounds nuw %struct.Gia_Man_t_, ptr %6, i32 0, i32 11
  %8 = load ptr, ptr %7, align 8, !tbaa !73
  %9 = call i32 @Vec_IntSize(ptr noundef %8)
  %10 = sub nsw i32 %5, %9
  %11 = load ptr, ptr %2, align 8, !tbaa !3
  %12 = getelementptr inbounds nuw %struct.Gia_Man_t_, ptr %11, i32 0, i32 12
  %13 = load ptr, ptr %12, align 8, !tbaa !74
  %14 = call i32 @Vec_IntSize(ptr noundef %13)
  %15 = sub nsw i32 %10, %14
  %16 = sub nsw i32 %15, 1
  ret i32 %16
}

; Function Attrs: nounwind uwtable
define ptr @Gia_ManTranStochOpt3(ptr noundef %0) #0 {
  %2 = alloca ptr, align 8
  %3 = alloca i32, align 4
  %4 = alloca i32, align 4
  %5 = alloca ptr, align 8
  %6 = alloca ptr, align 8
  store ptr %0, ptr %2, align 8, !tbaa !40
  call void @llvm.lifetime.start.p0(i64 4, ptr %3) #10
  call void @llvm.lifetime.start.p0(i64 4, ptr %4) #10
  %7 = load ptr, ptr %2, align 8, !tbaa !40
  %8 = getelementptr inbounds nuw %struct.Gia_ManTranStochParam, ptr %7, i32 0, i32 0
  %9 = load ptr, ptr %8, align 8, !tbaa !75
  %10 = call i32 @Gia_ManAndNum(ptr noundef %9)
  store i32 %10, ptr %4, align 4, !tbaa !45
  call void @llvm.lifetime.start.p0(i64 8, ptr %5) #10
  call void @llvm.lifetime.start.p0(i64 8, ptr %6) #10
  %11 = load ptr, ptr %2, align 8, !tbaa !40
  %12 = getelementptr inbounds nuw %struct.Gia_ManTranStochParam, ptr %11, i32 0, i32 0
  %13 = load ptr, ptr %12, align 8, !tbaa !75
  %14 = call ptr @Gia_ManDup(ptr noundef %13)
  store ptr %14, ptr %5, align 8, !tbaa !3
  store i32 0, ptr %3, align 4, !tbaa !45
  br label %15

15:                                               ; preds = %59, %1
  %16 = load i32, ptr %3, align 4, !tbaa !45
  %17 = load ptr, ptr %2, align 8, !tbaa !40
  %18 = getelementptr inbounds nuw %struct.Gia_ManTranStochParam, ptr %17, i32 0, i32 3
  %19 = load i32, ptr %18, align 8, !tbaa !79
  %20 = icmp sle i32 %16, %19
  br i1 %20, label %21, label %62

21:                                               ; preds = %15
  %22 = load i32, ptr %3, align 4, !tbaa !45
  %23 = load ptr, ptr %2, align 8, !tbaa !40
  %24 = getelementptr inbounds nuw %struct.Gia_ManTranStochParam, ptr %23, i32 0, i32 4
  %25 = load i32, ptr %24, align 4, !tbaa !80
  %26 = add nsw i32 %22, %25
  %27 = mul nsw i32 1234, %26
  %28 = load ptr, ptr %2, align 8, !tbaa !40
  %29 = getelementptr inbounds nuw %struct.Gia_ManTranStochParam, ptr %28, i32 0, i32 1
  store i32 %27, ptr %29, align 8, !tbaa !49
  %30 = load ptr, ptr %2, align 8, !tbaa !40
  %31 = call ptr @Gia_ManTranStochOpt2(ptr noundef %30)
  store ptr %31, ptr %6, align 8, !tbaa !3
  %32 = load ptr, ptr %2, align 8, !tbaa !40
  %33 = getelementptr inbounds nuw %struct.Gia_ManTranStochParam, ptr %32, i32 0, i32 3
  %34 = load i32, ptr %33, align 8, !tbaa !79
  %35 = icmp ne i32 %34, 0
  br i1 %35, label %36, label %46

36:                                               ; preds = %21
  %37 = load ptr, ptr %2, align 8, !tbaa !40
  %38 = getelementptr inbounds nuw %struct.Gia_ManTranStochParam, ptr %37, i32 0, i32 13
  %39 = load i32, ptr %38, align 8, !tbaa !52
  %40 = icmp ne i32 %39, 0
  br i1 %40, label %41, label %46

41:                                               ; preds = %36
  %42 = load i32, ptr %3, align 4, !tbaa !45
  %43 = load ptr, ptr %6, align 8, !tbaa !3
  %44 = call i32 @Gia_ManAndNum(ptr noundef %43)
  %45 = call i32 (ptr, ...) @printf(ptr noundef @.str.2, i32 noundef %42, i32 noundef %44)
  br label %46

46:                                               ; preds = %41, %36, %21
  %47 = load i32, ptr %4, align 4, !tbaa !45
  %48 = load ptr, ptr %6, align 8, !tbaa !3
  %49 = call i32 @Gia_ManAndNum(ptr noundef %48)
  %50 = icmp sgt i32 %47, %49
  br i1 %50, label %51, label %56

51:                                               ; preds = %46
  %52 = load ptr, ptr %6, align 8, !tbaa !3
  %53 = call i32 @Gia_ManAndNum(ptr noundef %52)
  store i32 %53, ptr %4, align 4, !tbaa !45
  %54 = load ptr, ptr %5, align 8, !tbaa !3
  call void @Gia_ManStop(ptr noundef %54)
  %55 = load ptr, ptr %6, align 8, !tbaa !3
  store ptr %55, ptr %5, align 8, !tbaa !3
  br label %58

56:                                               ; preds = %46
  %57 = load ptr, ptr %6, align 8, !tbaa !3
  call void @Gia_ManStop(ptr noundef %57)
  br label %58

58:                                               ; preds = %56, %51
  br label %59

59:                                               ; preds = %58
  %60 = load i32, ptr %3, align 4, !tbaa !45
  %61 = add nsw i32 %60, 1
  store i32 %61, ptr %3, align 4, !tbaa !45
  br label %15, !llvm.loop !81

62:                                               ; preds = %15
  %63 = load ptr, ptr %5, align 8, !tbaa !3
  call void @llvm.lifetime.end.p0(i64 8, ptr %6) #10
  call void @llvm.lifetime.end.p0(i64 8, ptr %5) #10
  call void @llvm.lifetime.end.p0(i64 4, ptr %4) #10
  call void @llvm.lifetime.end.p0(i64 4, ptr %3) #10
  ret ptr %63
}