; Function Attrs: nounwind uwtable
define ptr @Gia_ManTranStochOpt3(ptr noundef captures(none) %0) local_unnamed_addr #0 {
  %2 = load ptr, ptr %0, align 8, !tbaa !60
  %3 = getelementptr inbounds nuw i8, ptr %2, i64 24
  %4 = load i32, ptr %3, align 8, !tbaa !30
  %5 = getelementptr inbounds nuw i8, ptr %2, i64 64
  %6 = load ptr, ptr %5, align 8, !tbaa !47
  %7 = getelementptr i8, ptr %6, i64 4
  %.val.i = load i32, ptr %7, align 4, !tbaa !48
  %8 = getelementptr inbounds nuw i8, ptr %2, i64 72
  %9 = load ptr, ptr %8, align 8, !tbaa !49
  %10 = getelementptr i8, ptr %9, i64 4
  %.val3.i = load i32, ptr %10, align 4, !tbaa !48
  %11 = tail call ptr @Gia_ManDup(ptr noundef %2) #14
  %12 = getelementptr inbounds nuw i8, ptr %0, i64 16
  %13 = load i32, ptr %12, align 8, !tbaa !64
  %.not30 = icmp slt i32 %13, 0
  br i1 %.not30, label %._crit_edge, label %.lr.ph

.lr.ph:                                           ; preds = %1
  %14 = add i32 %.val3.i, %.val.i
  %15 = xor i32 %14, -1
  %16 = add i32 %4, %15
  %17 = getelementptr inbounds nuw i8, ptr %0, i64 20
  %18 = getelementptr inbounds nuw i8, ptr %0, i64 8
  %19 = getelementptr inbounds nuw i8, ptr %0, i64 64
  br label %20

20:                                               ; preds = %.lr.ph, %41
  %.033 = phi i32 [ 0, %.lr.ph ], [ %54, %41 ]
  %.01932 = phi ptr [ %11, %.lr.ph ], [ %..01932, %41 ]
  %.02031 = phi i32 [ %16, %.lr.ph ], [ %..02031, %41 ]
  %21 = load i32, ptr %17, align 4, !tbaa !65
  %22 = add nsw i32 %21, %.033
  %23 = mul nsw i32 %22, 1234
  store i32 %23, ptr %18, align 8, !tbaa !53
  %24 = tail call ptr @Gia_ManTranStochOpt2(ptr noundef nonnull %0)
  %25 = load i32, ptr %12, align 8, !tbaa !64
  %.not22 = icmp eq i32 %25, 0
  br i1 %.not22, label %41, label %26

26:                                               ; preds = %20
  %27 = load i32, ptr %19, align 8, !tbaa !56
  %.not23 = icmp eq i32 %27, 0
  br i1 %.not23, label %41, label %28

28:                                               ; preds = %26
  %29 = getelementptr inbounds nuw i8, ptr %24, i64 24
  %30 = load i32, ptr %29, align 8, !tbaa !30
  %31 = getelementptr inbounds nuw i8, ptr %24, i64 64
  %32 = load ptr, ptr %31, align 8, !tbaa !47
  %33 = getelementptr i8, ptr %32, i64 4
  %.val.i24 = load i32, ptr %33, align 4, !tbaa !48
  %34 = getelementptr inbounds nuw i8, ptr %24, i64 72
  %35 = load ptr, ptr %34, align 8, !tbaa !49
  %36 = getelementptr i8, ptr %35, i64 4
  %.val3.i25 = load i32, ptr %36, align 4, !tbaa !48
  %37 = add i32 %.val3.i25, %.val.i24
  %38 = xor i32 %37, -1
  %39 = add i32 %30, %38
  %40 = tail call i32 (ptr, ...) @printf(ptr noundef nonnull dereferenceable(1) @.str.2, i32 noundef %.033, i32 noundef %39)
  br label %41

41:                                               ; preds = %28, %26, %20
  %42 = getelementptr inbounds nuw i8, ptr %24, i64 24
  %43 = load i32, ptr %42, align 8, !tbaa !30
  %44 = getelementptr inbounds nuw i8, ptr %24, i64 64
  %45 = load ptr, ptr %44, align 8, !tbaa !47
  %46 = getelementptr i8, ptr %45, i64 4
  %.val.i26 = load i32, ptr %46, align 4, !tbaa !48
  %47 = getelementptr inbounds nuw i8, ptr %24, i64 72
  %48 = load ptr, ptr %47, align 8, !tbaa !49
  %49 = getelementptr i8, ptr %48, i64 4
  %.val3.i27 = load i32, ptr %49, align 4, !tbaa !48
  %50 = add i32 %.val3.i27, %.val.i26
  %51 = xor i32 %50, -1
  %52 = add i32 %43, %51
  %53 = icmp sgt i32 %.02031, %52
  %.01932. = select i1 %53, ptr %.01932, ptr %24
  %..02031 = tail call i32 @llvm.smin.i32(i32 %.02031, i32 %52)
  %..01932 = select i1 %53, ptr %24, ptr %.01932
  tail call void @Gia_ManStop(ptr noundef %.01932.) #14
  %54 = add nuw nsw i32 %.033, 1
  %55 = load i32, ptr %12, align 8, !tbaa !64
  %.not.not = icmp slt i32 %.033, %55
  br i1 %.not.not, label %20, label %._crit_edge, !llvm.loop !66

._crit_edge:                                      ; preds = %41, %1
  %.019.lcssa = phi ptr [ %11, %1 ], [ %..01932, %41 ]
  ret ptr %.019.lcssa
}